(ilrsgd
LogisticRegressionSGD
p0
(dp1
S'mu'
p2
F-0.01
sS'eta'
p3
F0.01
sS'weight'
p4
(lp5
F-0.00826504170243982
aF-0.0017431294279889108
aF0.008326367146230144
aF0.0
aF-0.005663726963878964
aF-0.03197618403651704
aF-0.001271972057405234
aF-0.060271695969658715
aF-0.011841080480126203
aF0.00912176842913541
aF0.003791234393409587
aF-0.016535211850341135
aF-0.006543365339277349
aF-0.012385108277510196
aF0.009228076941585242
aF-0.015918978202942136
aF-0.009542765644997848
aF-0.009644029522270921
aF-0.005316816967775023
aF0.01046985897405991
aF-0.026677780885905167
aF-0.004421367916094912
aF-0.008514911819394566
aF-0.005244515652051852
aF-0.029302655322881708
aF0.002653570985208696
aF0.006574940913032996
aF0.01150631240261323
aF-0.004623204985072408
aF-0.007366103391297919
aF0.020037114118464452
aF0.009664948807693207
aF-0.004434853614601353
aF-0.03226814851519136
aF-0.013153149172669843
aF0.0011917760744999974
aF0.0
aF-0.004746488787302097
aF0.0033609796993045414
aF-0.002028047002218348
aF-0.002820412699186725
aF-0.0034020779587267346
aF-0.018392424998543384
aF-0.0076020514033890985
aF0.0
aF-0.004055860906639416
aF-0.0025498437389916574
aF-0.004869815836981877
aF-0.008556778815940812
aF-3.528622911786673e-05
aF0.004650450208269353
aF-0.008326828677323787
aF-0.01146042089123129
aF-0.029023032868344983
aF-0.01767531486840813
aF-0.011368591759652874
aF-0.0052383547782494395
aF-0.015848690250205785
aF0.0
aF0.025378689056479314
aF0.011117610902318687
aF0.00424998350842806
aF0.013075600779020043
aF-0.0071704335263291195
aF-0.002606022900720693
aF-0.006518951662822941
aF-0.006264578974430108
aF-0.005108728984639462
aF0.007922578070740753
aF0.010843492413741
aF-0.029541322220528316
aF0.0
aF-0.004089035051183123
aF-0.0010691731821008464
aF0.011164469824842158
aF0.011117610902318687
aF0.001749355150766711
aF0.004222982282019109
aF-0.007727257894411658
aF0.009473106222498409
aF0.010995929279139904
aF-0.003563095483493023
aF0.001153223637620948
aF0.0
aF-0.004800235911288433
aF-0.0003424371470167632
aF-0.014398237466125896
aF-0.004312505064784047
aF0.0
aF-0.005434599789995018
aF0.012243566687163242
aF-0.006586034928119666
aF-0.005538227153621636
aF-0.006324263610232004
aF-0.0355585765249538
aF-0.00767046902668975
aF-0.004023466157860909
aF-0.007094877790610263
aF0.013483642888444874
aF0.0011747439222057141
aF-0.01436523738584377
aF-0.014873612453631103
aF-0.02493745219803942
aF-0.004746488787302097
aF0.014031200706121691
aF-6.336579989777984e-05
aF-0.0438262229658027
aF0.0
aF-0.0249219277153248
aF-0.008983951546447027
aF-0.004062855470542294
aF-0.007639329568715276
aF0.00048823723067256366
aF0.0053288353867211825
aF0.008485365235366995
aF-0.005030757193988537
aF-0.037418118367523914
aF-0.002211385911184727
aF-0.01369502470928805
aF-0.006529796134673754
aF-0.016555039437002927
aF0.009137328017918766
aF-0.03821788866547104
aF-0.002053910579490443
aF-0.010856600461221753
aF0.0
aF0.01687792990698176
aF-0.006801847652769148
aF0.009691482551110084
aF0.00869133431006865
aF0.0037456385728811595
aF-0.00767046902668975
aF-0.042623552670240095
aF0.0
aF-0.0017148741595938248
aF0.00734677062536007
aF0.00404799078660867
aF-0.002438320131273914
aF-0.006111620285382127
aF-0.002376183526827793
aF-0.07022242262571347
aF-0.005793589822168281
aF-0.0177338864965819
aF0.009382781501166566
aF-0.007223191915371528
aF-0.03655261473641914
aF-0.00772133506838382
aF-0.08690360167626479
aF0.009691482551110084
aF0.0025513148406825486
aF-0.011487478291617734
aF-0.007571156927661236
aF0.003801961957457086
aF-0.002748550014813772
aF-0.026085384069455268
aF-0.010003965331613624
aF-0.0032125111872946047
aF0.008412662434978848
aF0.038975248306126864
aF-0.0012859360804545815
aF0.004486745347963848
aF0.0
aF-0.0674271942562622
aF-0.007195706144143694
aF-0.004111463117175925
aF-0.009819700177545921
aF-0.0027848795424551534
aF-0.008540741742483624
aF0.005849099959274279
aF-0.024230916922905573
aF0.0
aF-0.05419261101887204
aF0.003427649314848339
aF-0.00425246858702897
aF0.0
aF0.02308466442312329
aF0.0
aF-0.01535667766582743
aF0.01829967197819599
aF-0.007375874099115309
aF-0.02328132169461226
aF-0.009855977064575151
aF0.009473106222498409
aF-0.023091602419252285
aF0.02288697683789276
aF-0.00944167761771338
aF-0.004426384092646915
aF-0.004355231816524208
aF-0.05433182160672909
aF0.0038649189787447026
aF-0.0005764797300336124
aF-0.046579696506793195
aF-0.00887715594915476
aF-0.03983183332502329
aF-0.00635977204198502
aF-0.005838259691873856
aF0.0008237374699725468
aF0.010948928688572434
aF-0.00028152351369921847
aF-0.013876173312321246
aF-0.009486276468905524
aF-0.0025132134189572064
aF-0.01234964221699866
aF-0.005145827322382265
aF-0.005760213805991869
aF-0.0076584749532928745
aF-0.009564898361925513
aF-0.004702886160171564
aF-0.003934402677417168
aF-0.0032439220901602167
aF-0.004312617391125199
aF0.0010856530124217832
aF-0.002820412699186725
aF-0.016446865979776144
aF0.015766640856061335
aF0.0
aF-0.006331487401634544
aF-0.013057340770898825
aF-0.03725403341007704
aF-0.02006285735511045
aF-0.037912462558554474
aF-0.03473603492717718
aF-0.0067062238915700356
aF0.024498397400715872
aF-0.011086701485621617
aF-0.00555707398776957
aF-0.024692367023468404
aF-0.006330648580831989
aF-0.01573903261141273
aF-0.005625079042009902
aF-0.015217539182070779
aF-0.0036669985558694124
aF-0.005108728984639462
aF-0.005102827430902043
aF0.011164469824842158
aF-0.0076584749532928745
aF-0.004684054113717018
aF-0.005177290385021
aF0.0
aF-0.009683109112402982
aF-0.0035646321223038154
aF-0.006350965143550159
aF-0.0010269928367742564
aF0.013608618307752694
aF-0.025571893946816204
aF0.008197794184386346
aF0.020568601242819017
aF0.0
aF-0.02245567905104637
aF-0.005201767995478362
aF-0.01508999834915071
aF0.0
aF-0.0017010097382624783
aF-0.005929113912687787
aF-0.010131488990058555
aF0.0
aF-0.029420405658970934
aF0.0
aF-0.004204253006726077
aF-0.02065837045385059
aF-0.0051696468011045655
aF0.0
aF-0.003262994271353283
aF-0.00858369113053208
aF0.010420343819183785
aF-0.004371151087763362
aF0.003813998563480227
aF-0.00029071449505999004
aF-0.007483748875191133
aF-0.009128992640582012
aF-0.02531716311058533
aF-0.008873930594202132
aF-0.008237810614108308
aF-0.006392826934569369
aF0.00762528329346716
aF0.005500213945957751
aF0.007219210226710251
aF-0.004384552962806805
aF-0.0031091373794955445
aF-0.0067569753018451514
aF-0.003988115968643943
aF0.003095651498154109
aF-0.018615262472459353
aF-0.006077241553074595
aF-0.009853723359581994
aF-0.007061300208087848
aF-0.0023282094750787926
aF-0.0011222423413473424
aF0.010441258688212905
aF0.0008122249360587819
aF-0.00803155282259418
aF0.006706439211850381
aF0.008661235702754936
aF-0.015968419202750803
aF-0.0022013794630346096
aF0.017367388803030907
aF0.0
aF-0.003143160910373986
aF-0.007727257894411658
aF-0.032937158798271415
aF-0.008340198179132877
aF-0.005806598290055854
aF-0.004648200722519876
aF0.01508599395807169
aF0.011164469824842158
aF-0.006331487401634544
aF-0.033696298119433955
aF-0.0077906002445706285
aF0.008282672113984433
aF0.0
aF0.0
aF-0.01862587350186397
aF-0.0031202830269533924
aF0.0
aF0.005567863042671522
aF0.007634602963358341
aF0.006567988520536731
aF-0.01887122530172501
aF0.0009878059911361606
aF-0.005108728984639462
aF0.0076521593515619405
aF-0.012420668530915247
aF0.003317877353068544
aF-0.005759116004319367
aF-0.05319558934135862
aF-0.009390723827004469
aF-0.012746938961146167
aF-0.011425435541098304
aF-0.0077906002445706285
aF-0.013082584878005649
aF-0.0017431294279889108
aF-0.005844860285000181
aF0.0
aF-0.004681607130964809
aF-0.0017445697304135854
aF-0.07135694466574831
aF-0.019737774688151934
aF-0.005615345556564226
aF-0.01092469986419576
aF-0.004098303343722848
aF-0.0035326770315035542
aF0.0025183057781783145
aF-0.007303092242743803
aF0.00869128054580429
aF0.0044653445820622036
aF-0.009589024595908695
aF-0.0014349889406663706
aF0.018467106955238045
aF-0.003572519675509631
aF-0.013990903405176067
aF-0.05367373808722533
aF-0.0256614454319637
aF-0.003159872645975796
aF0.008591103496867999
aF-0.016104496912057464
aF-0.004658626564905555
aF-0.052367474150224566
aF-0.017203043541600477
aF0.0
aF-0.004684054113717018
aF-0.0043067217208181
aF0.014332125959034134
aF-0.029143225714721426
aF-0.003016320925816222
aF-0.005760213805991869
aF0.0
aF-0.002220706716041422
aF-0.01292254278614766
aF0.008736667673415785
aF0.0
aF-0.004638226552140231
aF0.02068197184791342
aF-0.01688281972940094
aF-0.014593028132962748
aF-0.001222654619228777
aF-0.01077744204458159
aF-0.0026817124108955903
aF-0.00868673687377425
aF-0.007673024616238702
aF-0.0028116734502748575
aF-0.004165397298003539
aF-0.013978658683832558
aF0.01045208948868732
aF-0.014062440312802509
aF-0.017447591977505714
aF0.008895921691747249
aF-0.02490617192710125
aF-0.024873130779267387
aF-0.00571552868576101
aF-0.02191038949535197
aF0.0
aF-0.006971977537309067
aF-0.0023852448915197165
aF-0.010914136854033524
aF-0.014983803790398398
aF-0.01113392478145301
aF-0.007280341898735417
aF0.0025183057781783145
aF-0.006566621156967461
aF-0.0018159218636435318
aF-0.004681607130964809
aF-0.013274886676547297
aF0.0
aF0.009295046851731917
aF-0.0036098297794686382
aF0.013630321019624065
aF-0.006706613025224083
aF5.8526868598748694e-05
aF-0.0043700613862722735
aF0.0
aF0.0
aF-0.017926545651852713
aF0.0
aF-0.01243715414825043
aF-0.005720170434185364
aF0.019259184620737908
aF-0.02209843395130804
aF0.002226134385012874
aF0.03273119749751825
aF-0.005082255202729753
aF-0.004232184364910603
aF-0.003016320925816222
aF-0.005760213805991869
aF0.014769619223490139
aF0.006899307032333765
aF-0.005439625383082398
aF0.009110130267277106
aF-0.05496897872118936
aF-0.0064503656497594
aF-0.014606189111711847
aF-0.009676767538017692
aF-0.004941104203087673
aF-0.007061300208087848
aF-0.012754350622658096
aF-0.003528876530386743
aF0.0
aF-0.005303896110731127
aF-0.008300910620588934
aF0.0021591467793560548
aF-0.011355027450119721
aF-0.010540984354716607
aF-0.006761882546426489
aF0.0
aF-0.002832838204477219
aF-0.04242115069287069
aF-0.010993789403815122
aF0.0007590046180783245
aF-0.0016846025593901623
aF-0.0032994400202084953
aF-0.03146974888820088
aF0.0017719217003670904
aF0.01164555031018231
aF-0.019558449661976788
aF0.01728465869971526
aF-0.0015620607404091278
aF0.0
aF-0.003559844742835868
aF-0.0006455196571793052
aF0.00902350603063888
aF-0.0019700655174616473
aF0.010261670682177532
aF0.0016873050248609152
aF0.0
aF0.004571238645949975
aF0.0044466631295611205
aF-0.008206967391542011
aF-0.00858991224076477
aF-0.031404567755347765
aF-0.007243244841101099
aF-0.00803155282259418
aF-0.005326516157038915
aF-0.005271960094262591
aF-0.024431610695073686
aF-0.0013352775495782318
aF0.0
aF-0.013736730480518612
aF0.006446893584777617
aF-0.0026817124108955903
aF0.0033322382904956223
aF-0.005970970001466698
aF-0.00803155282259418
aF-0.004063651417231786
aF-0.0029511660783466415
aF-0.015563841020560682
aF0.009701169138186317
aF-0.008394265583893383
aF-0.022685223418256868
aF-0.0012060966470820989
aF-0.034277563346443184
aF0.008128679343716938
aF-0.0021058999775975316
aF-0.009464060351649973
aF0.003459690294000045
aF-0.006330003686107045
aF0.008591103496867999
aF-0.006154499301268052
aF-0.007746497523955122
aF-0.004470273971941094
aF-0.008745258548196602
aF0.0
aF0.002253412341431284
aF-0.003613548678028459
aF-0.0044780155710226
aF-0.03384426190285713
aF-0.0071487104484233375
aF0.032527829020917644
aF0.004038239491659222
aF0.011357708270970454
aF-0.009153654259592735
aF-0.003785030860122045
aF0.010742280864237579
aF-0.014899936925484638
aF-0.004513423582828314
aF-0.012901224350425237
aF0.0
aF-0.008967261833604826
aF-0.005760213805991869
aF-0.003559844742835868
aF-0.0027844019095848525
aF0.0
aF-0.004625805181802748
aF-0.028915025230241014
aF-0.051383352420837
aF-0.023212175663513517
aF-0.004284738995120277
aF-0.015407923818918713
aF-0.027130881806189507
aF-0.003262994271353283
aF-0.012050835043060962
aF-0.012507335860625194
aF-0.005760213805991869
aF-0.006676421403382701
aF0.0
aF-0.01464301270235375
aF0.008454073186141222
aF0.017372644227094294
aF-0.003875819349811163
aF0.0028308175860365875
aF0.0049015247398657355
aF-0.0017452172250060987
aF0.007753713282332617
aF-0.022812887518241228
aF-0.009675261513279172
aF-0.00797886903780961
aF-0.014017238862725455
aF-0.006596250678556577
aF-0.009695799738507548
aF-0.0012688194391348286
aF-0.012605456465254157
aF-0.015570826684557965
aF0.0036553151078312545
aF0.0012616155272118074
aF0.010995929279139904
aF-0.0010053334653766148
aF0.01585700670525861
aF-0.02564729517542308
aF-0.022221967603652994
aF0.0
aF0.029387137831433652
aF-0.015132635125091762
aF-0.001092117479655226
aF-0.004786544027865436
aF-0.005665287390085611
aF-0.1365102792850672
aF-0.0024799216395601396
aF-0.05574038051552968
aF-0.006582457802515594
aF-0.003761311463196082
aF-0.028751495847732563
aF-0.008389073729288411
aF-0.0038118957218720713
aF-0.02002762268703979
aF-0.09279368843699813
aF-0.005760213805991869
aF-0.003559844742835868
aF-0.0016923391012790665
aF-0.0061648170893475835
aF-0.0026638925846831827
aF-0.01984929033858272
aF-0.11215718311513646
aF-0.007826675890779783
aF-0.004884997853202959
aF-0.024631563795489045
aF-0.007354998757195361
aF0.016379629373011493
aF-0.02066787237499357
aF-0.016559951742217693
aF-0.021237924435018055
aF-0.007654678710314523
aF-0.01961060887641494
aF-0.003667366918561375
aF-0.006219829645584312
aF-0.008207468178594463
aF-0.0016543951919376944
aF0.00966438731146794
aF-0.003586901380311444
aF-0.013413357876949084
aF-0.06396915710302119
aF0.0
aF-0.01568797254867404
aF-0.005788102845010859
aF-0.028027420844798468
aF-0.003536332057276403
aF0.005786762818656028
aF-0.0032535156809172295
aF-0.02000122510700309
aF-0.0664893201633415
aF-0.028429192365608664
aF-0.007012227604243948
aF-8.211903307444365e-05
aF-0.010697079646080273
aF-0.013797508422469504
aF-0.08577923139574725
aF0.007015828412699139
aF-0.023111621222263606
aF-0.00809602236610181
aF-0.004877750955589234
aF-0.005628822629648879
aF-0.017431688286367503
aF0.0
aF-0.005444241003783548
aF0.008663980328750048
aF-0.0061958553525136946
aF0.00982297281108264
aF-0.004493199601428345
aF0.0
aF-0.0013331869950447908
aF-0.004560660044062942
aF-0.004493590809974605
aF-0.04836864568865371
aF0.0
aF-0.009975376720403582
aF0.0020252979684528306
aF-0.02264345187648525
aF0.0
aF-0.006308266853614902
aF0.009238258505016644
aF0.002512426778625169
aF0.009283594983508003
aF-0.003032438474234537
aF-0.00601886748443416
aF0.006688227197090454
aF-0.00816945826155328
aF0.0
aF-0.005167568716790966
aF0.022615451851349742
aF0.0005647392595962907
aF0.005581413192942853
aF-0.05368001642325685
aF-0.0010295966802829405
aF-0.013428539043510802
aF-0.011637913159515368
aF0.003740716527698626
aF-0.028545475355505702
aF-0.01749894764710998
aF-0.0035039648973609035
aF-0.015584067018867859
aF-0.0382108521494558
aF0.008518093927340688
aF0.02627982683918499
aF-0.032172025489181716
aF-0.03252848004223178
aF0.004288666377669583
aF-0.008690963987194175
aF-0.01745732142069269
aF-0.004221996126277768
aF-0.049974382173729744
aF0.011580022108001029
aF-0.01757522756848495
aF-0.3640090166826248
aF0.008863165836651702
aF0.009886572759502934
aF0.008518093927340688
aF-0.011413274171433289
aF-0.037214259573627534
aF0.017074143126241993
aF-0.0059444686252155135
aF-0.025834273168399036
aF-0.005159938928496858
aF0.03453625957805713
aF0.0
aF0.008009282098761008
aF-0.0106475488753152
aF0.0034283804872456873
aF0.0
aF-0.006172587073756197
aF-0.020596208768117033
aF-0.02185623570085503
aF-0.031264275623092246
aF-0.02112196132751918
aF-0.0048442400623915196
aF-0.005436590986754149
aF0.016707383905994945
aF-0.005368537266884491
aF-0.0011110993621024586
aF-0.06539637158312546
aF-0.13101344759099776
aF-0.001020512494538446
aF0.014992639250094308
aF-0.008108773632076098
aF-0.005030541057147893
aF-0.00590731357125378
aF-0.009458979116589461
aF-0.007012227604243948
aF0.014726783864353037
aF-0.003016320925816222
aF0.011304584664834926
aF-0.005273158096951499
aF-0.029663451110751263
aF0.009073064683119721
aF-0.013341345439155872
aF-0.004646030153122565
aF0.0
aF0.04019569527672595
aF-0.0069598361465194585
aF-0.009234093052250519
aF-0.00998065301333229
aF-0.006760642860695136
aF0.0
aF-0.003192692018901517
aF0.0009843998673569442
aF-0.004121157632803998
aF-0.0006831588950264644
aF-0.002020716540363042
aF-0.07095158789018548
aF0.003203913633421302
aF0.024379357982418838
aF0.005906079214082544
aF0.03090293297220508
aF-0.001012636396603447
aF-0.0018353001887359372
aF-0.0037574819404321115
aF-0.004141064217617242
aF-0.008411155278988338
aF0.0
aF-0.06828071383051103
aF-0.0056287500002836
aF-0.009695134786375856
aF-0.0023809013794842434
aF-0.012038041943395134
aF-0.0035727474760568648
aF0.014213513983631198
aF-0.01943382789606705
aF-0.029438629847273884
aF0.0008449968327680108
aF-0.015486653817624388
aF-0.06879511092031626
aF0.0
aF0.004252430341828241
aF-0.011010914180031377
aF-0.009170212730586212
aF-0.007684611904236963
aF-0.007873618642457277
aF-0.14838672495909683
aF-0.006210599335727914
aF-0.004338472787200865
aF-0.008889572047071543
aF-0.004312617391125199
aF-0.018272436100114336
aF0.009641263411432973
aF-0.03682763773965882
aF0.012297842037786593
aF0.007922578070740753
aF-0.012973072940367768
aF-0.01828563973045817
aF-0.011060974366189491
aF-0.008967010068035467
aF0.005400676788569628
aF-0.011357827998102706
aF0.02355759938568618
aF0.00860038329650067
aF-0.0067158430512274485
aF-0.27333633031494753
aF0.02030684208465833
aF-0.005661339214429806
aF-0.003566022931480689
aF-0.04686159305967173
aF-0.10063755905189244
aF-0.01835598863849456
aF-0.003619751417137602
aF-0.018722493166582716
aF0.011155594445049445
aF0.007639529790215042
aF-0.003485395877415989
aF-0.014394534739709194
aF0.010995929279139904
aF-0.02140255786629935
aF-0.009780001659122893
aF-0.008170346222808779
aF-0.04311139844888324
aF-0.11553730122428149
aF-0.004493133876903029
aF-0.02404300784321697
aF-0.07116679651953867
aF-0.008444500450427309
aF-0.0041205458785311235
aF-0.08504188303834322
aF0.0
aF-0.006764910560967615
aF0.004127313565448892
aF-0.0011449449123058276
aF-0.003262994271353283
aF0.007753027330717573
aF0.012171055851006314
aF-0.006125946998902462
aF0.01153134443665562
aF-0.005551203871543332
aF0.0
aF-0.005737713243414063
aF0.013050543854615763
aF-0.008777131200235171
aF-0.055050881088346396
aF0.0
aF-0.0628480101417489
aF-0.011820863503446367
aF-0.028792638215703124
aF-0.0193013036015327
aF-0.08404372888698865
aF-0.05526890124241004
aF0.00040078981744483375
aF-0.019209040302995636
aF-0.004327457017051409
aF-0.010290879781527007
aF0.009933947423802904
aF0.005525118116041643
aF-0.013596760817236542
aF-0.00707262594514812
aF0.006064945653013943
aF-0.004189213681751927
aF-0.3174914671438407
aF-0.006217789752246191
aF0.0017855363664473027
aF-0.012673364924697764
aF-0.018018614114557612
aF-0.022977554958735595
aF-0.0033690758199247544
aF-0.03552060537224128
aF-0.003016320925816222
aF-0.002775208567518794
aF-0.005640502746188632
aF-0.017594881739781583
aF-0.0037402586931803636
aF-0.045331305683880205
aF0.00782180868634072
aF0.008373555808103797
aF-0.0003731535176369904
aF-0.004911965614094518
aF-0.02322075411226121
aF-0.008362013051808583
aF-0.004306078469051536
aF0.008466332083866513
aF-0.015535121503805925
aF-0.021567414609523553
aF-0.002453118352083047
aF-0.038545997426762
aF-0.009450177624667103
aF-0.14256310336869915
aF-0.004648200722519876
aF-0.005291267914117186
aF0.0002649378074105458
aF-0.08328790774079847
aF-0.01677547070861731
aF-0.10984251733033329
aF0.0
aF-0.011967586905556635
aF-0.05089747253477459
aF-0.08205895819290081
aF-0.011155053410310126
aF-0.0018078830485241787
aF0.009171157231322903
aF0.013772888210440953
aF0.02523765170718736
aF-0.0014646572142870658
aF-0.3801021341004029
aF-0.01277163323117995
aF0.0
aF-0.0009213483236653161
aF0.009479971656111141
aF-0.00900028287889202
aF-0.0037402586931803636
aF-0.020766000735087945
aF-0.005774941070468817
aF-0.0017341882596178298
aF-0.011433541499892015
aF-0.004884997853202959
aF0.0
aF-0.0504077812962508
aF-0.022418193529551936
aF-0.01239438814831501
aF-0.005917240916549982
aF-0.007727257894411658
aF-0.053785737137254326
aF-0.1400462245210335
aF-0.0033183196831774436
aF-0.0021451118814611913
aF-0.1396947489607023
aF-0.03185282493130982
aF-0.03302337679666567
aF-0.004634469778976187
aF0.013747882897023738
aF-0.23890580711003775
aF-0.0028328704926330736
aF-0.00998603325385714
aF-0.007743398506436454
aF0.0
aF-0.019661707487845053
aF-0.004151179386437594
aF-0.024835923705939917
aF-0.015461171740834443
aF0.014738238627028815
aF-0.010873494326054969
aF-0.004698739448135802
aF-0.016317470113425395
aF-0.005856895643172271
aF-0.012822884273532197
aF0.0024740740142954343
aF0.0
aF-0.007445405634916504
aF-0.005316885843989233
aF-0.017404887238477176
aF0.011476669402372802
aF-0.02686506032292847
aF-0.0033690758199247544
aF-0.00917866393749645
aF-0.00807184032374043
aF0.0001228491067878251
aF-0.0397874466653546
aF0.001021532187370612
aF0.0
aF0.008828767971299807
aF-0.013383981159023216
aF0.011186375342235013
aF0.006275674195965481
aF-0.00579833107775958
aF0.0
aF0.0016208453583990803
aF0.001085587937229261
aF0.0
aF0.0
aF-0.008889572047071543
aF0.017888609008229958
aF-0.01829670268105906
aF-0.00820938749423026
aF-0.0018926508087244867
aF0.013814249587021021
aF-0.019029058512182565
aF-0.003568317398523806
aF-0.027773283330190465
aF-0.020314981613656306
aF0.007264095415353212
aF-0.02754124158505132
aF-0.021774985539232468
aF0.009416308844408328
aF-0.004123164685047234
aF0.008168575796328549
aF-0.008229904555396204
aF-0.004500985579990618
aF-0.003581353491510101
aF-0.004493133876903029
aF-0.008662435113218665
aF-0.003324212415249087
aF0.006754807375505173
aF0.009228076941585242
aF-0.008936817941532903
aF0.0
aF-0.00579833107775958
aF-0.008469408532807116
aF-0.007445405634916504
aF-0.012369875103776367
aF-0.050103133947443465
aF0.0
aF-0.03570357425227209
aF-0.005161156378337795
aF-0.020288045477473055
aF-0.008990297267040518
aF-0.01158068804325432
aF0.0
aF0.011576217775507663
aF-0.006981834862738884
aF-0.011137926667192134
aF-0.013664999346636467
aF-0.005198390174605775
aF-0.002182780004815866
aF-0.10592469462436067
aF-0.004141045713937481
aF-0.006350965143550159
aF-0.05269655804508686
aF0.0
aF-0.0051851000356298105
aF-0.004568313145751427
aF0.0
aF-0.0056937540990423365
aF0.008304020128612472
aF-0.019802083865369764
aF0.017498148606295463
aF0.0
aF-0.020529421645569115
aF0.0005194344599507572
aF0.004999038066610799
aF0.007367831985435889
aF-0.016611769164127203
aF-0.008252984649667453
aF0.00804346802618118
aF-0.002954169717722225
aF-0.02920445877655617
aF-0.008039620401662713
aF0.009886572759502934
aF0.005256752788082255
aF-0.0024019704083716583
aF-0.0468904592438291
aF-0.009617706832360127
aF-0.13736105991612663
aF-0.006623380643453458
aF0.004261241653060412
aF-0.03957964470109846
aF0.0
aF0.0
aF-0.020687650778924486
aF-0.0030729485383762566
aF0.0036299982622157436
aF-0.003922252363379942
aF-0.004696126113434847
aF0.013114050924756846
aF-0.008326828677323787
aF0.009251707347858115
aF-0.01980774612012854
aF-0.010854232555780014
aF0.007046059117608164
aF-0.03493049602493633
aF-0.0029425052443943357
aF0.0013938894148777612
aF0.009042035735380032
aF-0.00485730562378464
aF-0.007071372843656027
aF0.008434859657615531
aF0.023428226511892494
aF0.0
aF-0.004745087320060677
aF0.0035587488762270462
aF-0.0020914182361427775
aF0.01045208948868732
aF-0.0012694023359956588
aF-0.006274302135856807
aF-0.008062912429173192
aF-0.008276506950880247
aF-0.005508538446334015
aF-0.027303618637966327
aF-0.012614735368758689
aF-0.005965689628450775
aF-0.0034633031537460784
aF-0.0045451171483255936
aF-0.0326906198402466
aF-0.008932217348225946
aF-0.005236603298779192
aF0.0
aF-0.0049407653012478675
aF0.021227279776458392
aF-0.0025498437389916574
aF0.008863165836651702
aF-0.034425202474807154
aF0.0
aF-0.006131952891564541
aF-0.01771715784815986
aF0.006028168538257933
aF-0.01046256843357623
aF-0.003324212415249087
aF-0.009062303652769364
aF0.0
aF0.00028678758377221947
aF-0.002300227316975812
aF-0.0041850432459290396
aF0.007346495785552034
aF-0.007603585789490243
aF-0.0038300678647439075
aF-0.00994005412574663
aF0.007462274504043275
aF-0.014876001326838847
aF-0.011804116126775375
aF-0.026141487566964404
aF-0.00437506723192976
aF-0.008800501331338874
aF-0.013106397868972306
aF-0.005673027784515921
aF0.004086085977757171
aF-0.004384552962806805
aF0.014838344953359924
aF0.012926924432434136
aF-0.0028116734502748575
aF-0.09393221167475564
aF-0.017203043541600477
aF-0.00234705950085415
aF-0.0013441018747747016
aF-0.02083939206668704
aF0.003317877353068544
aF-0.007061300208087848
aF-0.008967261833604826
aF-0.01322618737878293
aF-1.6566417065088364
aF-0.4199543528143161
aF0.0
aF-0.03495954520450741
aF-0.005108728984639462
aF-0.003922252363379942
aF0.009339429013653748
aF0.004222982282019109
aF0.0008122249360587819
aF0.008736667673415785
aF-0.03493049602493633
aF-0.01771715784815986
aF-0.003800573178494115
aF0.0026462211290968814
aF-0.003997203676405284
aF-0.019665344665469115
aF-0.03734018317819872
aF-0.010130279686384238
aF-0.005538227153621636
aF-0.0031928737648596797
aF-0.007020602120116153
aF-0.031087054197582606
aF-0.06677074274612943
aF-0.005255385470175184
aF0.0009861202915014888
aF-0.008521342861774184
aF-0.00299459759854169
aF-0.004222776574192269
aF-0.016891680857352896
aF0.007628019158549641
aF-0.0012340452867917004
aF-0.019608306032657074
aF-0.0038557313474873903
aF-0.014641645679084872
aF-0.025829169508814313
aF0.007462274504043275
aF-0.001271972057405234
aF-0.03301660124789577
aF0.008395909066936831
aF0.014689462647083347
aF-0.0048134384879782435
aF-0.0068174326476791725
aF-0.008614914477184672
aF-0.010035185882733055
aF-0.0049407653012478675
aF0.0
aF-0.005145827322382265
aF0.0009422545034899507
aF-0.004059055338320588
aF-0.004100934374483617
aF-0.008800501331338874
aF-0.006949082337896577
aF-0.00246581879970792
aF-0.0032828497830370068
aF0.0
aF-0.03241602821760972
aF-0.026615039358977556
aF-0.002182780004815866
aF-0.020517342999245108
aF-0.01436523738584377
aF-0.05322363506730244
aF-0.0016543951919376944
aF-0.003256254971324505
aF-0.017594881739781583
aF0.0
aF0.011422018155217161
aF-0.029541322220528316
aF-0.0035326770315035542
aF0.009137328017918766
aF-0.0438262229658027
aF-0.03821788866547104
aF-0.0052383547782494395
aF-0.0035646321223038154
aF-6.336579989777984e-05
aF-0.029571488789352698
aF-0.026391386704167036
aF0.00734677062536007
aF-0.003371692700515281
aF-0.004746488787302097
aF-0.004684054113717018
aF0.0016873050248609152
aF-0.006331487401634544
aF-0.004571665713612016
aF0.0
aF-0.012901224350425237
aF-0.00366175687338426
aF-0.00366175687338426
aF-0.12023262642659717
aF-0.003262994271353283
aF-0.004312505064784047
aF-0.008389073729288411
aF-0.006801847652769148
aF0.007949627745809864
aF-0.004915967624856727
aF-0.02493745219803942
aF-0.004199993347950605
aF-0.004545927675598389
aF-0.005186237577897071
aF-0.008300910620588934
aF-0.014015962067870537
aF-0.01714502145327829
aF0.000914796915226463
aF0.00793563185609795
aF0.0
aF0.006899307032333765
aF-0.003032438474234537
aF-0.12023262642659717
aF0.0
aF-0.0007381665765666845
aF-0.024613275999868175
aF-0.01709421764565684
aF-0.0035646321223038154
aF0.006942731305161002
aF-0.0025498437389916574
aF-0.007061300208087848
aF-0.20656747553923693
aF-0.008462137604747701
aF-0.010048405981751031
aF-0.0027948064998725335
aF-0.003016320925816222
aF0.008492116449372356
aF-0.003913481876293382
aF-0.0012599527272779691
aF-0.011503791870319784
aF0.0024951038186390774
aF-0.005065890204284957
aF-0.007549477380951624
aF-0.008148676600052411
aF0.0023901350708439638
aF-0.011632220863130257
aF-0.009781100210599976
aF-0.04898941847467812
aF-0.07116679651953867
aF-0.006591619534472068
aF0.008587942464756648
aF-0.005425891278258179
aF-0.01961060887641494
aF-0.0524815818152484
aF-0.005159938928496858
aF0.0
aF-0.012061216934877248
aF-0.008967010068035467
aF0.016734416401936868
aF-0.006282978546064917
aF-0.0041703891049712245
aF0.0
aF-0.020979549494679835
aF-0.008415981149930437
aF0.0009025916862098821
aF-0.0015908437179792362
aF-0.011264871104533343
aF-0.007935902628794707
aF0.004126583006817698
aF-0.02637014373852899
aF-0.03573766187150801
aF-0.004746488787302097
aF0.008811459357325933
aF-0.003262994271353283
aF-0.018683906493638644
aF0.008591103496867999
aF-0.00764491620697924
aF-0.004854117632698275
aF-0.00707262594514812
aF-0.009934328552051936
aF-0.007772428483839173
aF-0.005082255202729753
aF-0.00490103715533589
aF-0.006472565157234625
aF-0.020596208768117033
aF-0.009034174215020023
aF0.010995929279139904
aF-0.028545475355505702
aF-0.025172865244720764
aF-0.07241480176116047
aF-0.030772547741173523
aF-0.07241480176116047
aF-0.01134767344596589
aF0.0
aF0.008249529777579
aF-0.004098303343722848
aF0.0
aF-0.007084045318247038
aF0.0
aF-0.004953096377071672
aF0.006484626760555127
aF-0.006971977537309067
aF-0.0012450816625393334
aF0.0024951038186390774
aF0.010420343819183785
aF-0.007238671816393245
aF-0.028792638215703124
aF-0.016147602892828825
aF0.004633793142997721
aF-0.03734018317819872
aF-0.008125773154398056
aF-0.010131488990058555
aF0.009283594983508003
aF-0.005806598290055854
aF5.489704024140605e-05
aF-0.022595864248790412
aF-0.041884907134322934
aF0.0038618540755104556
aF-0.011155053410310126
aF-0.004472570493165204
aF0.01045208948868732
aF0.0027194789060385727
aF0.014392090502821883
aF-0.014222730124315679
aF0.0008226091053980352
aF0.0013038724701934779
aF0.006176360424145086
aF-0.0008652496797449265
aF0.013075600779020043
aF0.0057723168299082155
aF-0.0012166522410368545
aF-0.0006492519257211836
aF-0.01437135832564863
aF-0.00566386106228575
aF-0.005720170434185364
aF-0.004199993347950605
aF-0.007727257894411658
aF-0.010114727715925117
aF-0.008855382681098188
aF0.010995929279139904
aF0.0
aF-0.0013352775495782318
aF0.0
aF-0.01714502145327829
aF0.0
aF-0.003673273638747716
aF0.008597154961618093
aF-0.003262994271353283
aF-0.005914139320849061
aF-0.02731359666345073
aF-0.019633861744405866
aF-0.011127027182986542
aF-0.008560490239705567
aF-0.008514911819394566
aF-0.00998065301333229
aF-0.0021091963703135383
aF0.007628019158549641
aF0.03273119749751825
aF0.016379629373011493
aF-0.003256254971324505
aF0.01705740028523333
aF0.00804346802618118
aF0.011186375342235013
aF-0.004165397298003539
aF-0.3799467961377672
aF-0.014083575257817105
aF0.0
aF-0.014388007216187562
aF0.0
aF-0.046804080057326156
aF0.010697310944168327
aF-0.008362013051808583
aF-0.0069598361465194585
aF0.0065172664124649405
aF-0.014089367879233513
aF-0.017219435597429004
aF-0.019633861744405866
aF0.0
aF0.00852005456476931
aF-0.046663596776690845
aF-0.0032834989665145105
aF-0.005138880454515833
aF-0.02030941444720683
aF0.0
aF-0.00831201438172
aF-0.015482264664802061
aF-0.0197041085292575
aF0.024896097416845113
aF-0.014394534739709194
aF-0.015411566944193838
aF-0.004213821850962402
aF-0.02122611829225784
aF-0.03837350222056662
aF0.0010547355840076504
aF-0.003139981032313015
aF-0.7624916617822411
aF0.007491341741755623
aF-0.002176418837413946
aF0.0
aF-0.007491796769743355
aF-0.031073756438878053
aF-0.01199909271613663
aF-0.021992472648124695
aF0.011128367382755931
aF-0.003090839159023483
aF-0.01575390663818332
aF-0.004262383711762893
aF-0.012878661644686627
aF-0.0041850432459290396
aF-0.019284634363784886
aF-0.04120232715618522
aF-0.007273950426308387
aF-0.004071416586159639
aF-0.014088839498601943
aF-0.007013015770620855
aF-0.01863721592857681
aF0.010556960362279379
aF0.010995929279139904
aF0.0032715989035039333
aF-0.007622868160518605
aF-0.027542869854222263
aF-0.06440087525410752
aF-0.0035090357527294467
aF0.0060862567229353045
aF-0.0038170986982121943
aF0.01564727784647558
aF0.0
aF0.008307974418224898
aF0.0030152116760907674
aF0.0
aF0.0076521593515619405
aF-0.0033559680201171484
aF-0.003947901614989013
aF-0.0012872933794477277
aF-0.00494189418564095
aF-0.004384552962806805
aF0.010714624825155006
aF0.0
aF-0.019156119771997545
aF-0.022318217554165198
aF-0.004123164685047234
aF-0.0025498437389916574
aF-0.0012859360804545815
aF0.005063232890810871
aF0.0
aF-0.0197041085292575
aF-0.006600420397947755
aF0.018926236149499766
aF0.007848609139246685
aF-0.0445895671860277
aF-0.021352921386415008
aF-0.02543874159453913
aF-0.05143337551134781
aF-0.00873147463116684
aF-0.016504515914635306
aF-0.004196431054801724
aF-0.00029107392009648737
aF0.0
aF-0.009000913705776386
aF0.010995929279139904
aF-0.04719220416284249
aF-0.025759483454633924
aF-0.008725851921049329
aF-0.005053505501394435
aF-0.007306657183013455
aF0.0
aF-0.0043097557699064105
aF-0.01109598905717701
aF-0.006831984951841829
aF0.0
aF0.0
aF-0.014063591778270226
aF-0.010035185882733055
aF0.0
aF-0.004923702113369443
aF0.008340666869132481
aF-0.0061402708160460855
aF0.019300953297034087
aF-0.004222776574192269
aF0.0
aF-0.006480365463353917
aF-0.019423380282366152
aF-0.013921822352686105
aF-0.007238671816393245
aF-0.001997911149477465
aF-0.3124939687826949
aF0.0015877209394145522
aF-0.0015908437179792362
aF-0.028286353410766428
aF-0.005545426483878879
aF-0.0017756340781852598
aF0.0847539795041823
aF-0.016152606430244635
aF-0.0028688323569933095
aF0.00908184210866484
aF-0.00904982296672491
aF-0.026642322503495436
aF0.0
aF0.02048132310015736
aF-0.0067651263465563355
aF-0.0024996840085005937
aF-0.0077066786533550825
aF-0.02380581810587491
aF-0.0058554605764123665
aF-0.007061300208087848
aF-0.010465829210538406
aF-0.004141045713937481
aF-0.0016101159266432268
aF-0.009700285293499778
aF0.0
aF-0.049327041282167375
aF0.0007917590325275145
aF0.028107596570828952
aF0.0062375249319350295
aF-0.011173361169568422
aF-0.03685259340865312
aF-0.02028151474698554
aF-0.13175035139016075
aF-0.001092117479655226
aF-0.008889572047071543
aF-0.008889572047071543
aF-0.014393981230943506
aF0.006103630060435443
aF-0.007306657183013455
aF-0.007727257894411658
aF-0.08722284745884142
aF0.0
aF-0.003997203676405284
aF-0.010974437878321556
aF0.0
aF-0.004106943992006739
aF-0.006056266441565769
aF-0.02241453741797793
aF-0.00892851903403666
aF-0.005157547301195718
aF-0.009039959977637074
aF0.0
aF4.883965082702954e-05
aF0.006942731305161002
aF-0.004804417322327139
aF0.0015068441790771234
aF0.00808436016159652
aF-0.04260712388881643
aF-0.02813174784142961
aF-0.005614705975765038
aF-0.011974370036484631
aF0.008255067340196596
aF-0.003631637708987309
aF-0.037986051654771105
aF0.0
aF0.007219210226710251
aF-0.015407367019698205
aF0.0
aF-0.011512482221333126
aF-0.0014902688670133351
aF-0.02058352445386597
aF0.008700494598302988
aF-0.03734018317819872
aF-0.009286066605282719
aF0.011106792169760453
aF-0.036755452058769116
aF-0.009883420911286883
aF-0.013149537373932896
aF0.0
aF-0.003940630052315836
aF-0.001987074796327945
aF-0.001707555364770244
aF-0.008175562136109125
aF0.004989951384444604
aF-0.005297128655193994
aF0.0
aF-0.00708516936247582
aF-0.006359829295988931
aF-0.004495113044061957
aF-0.03514434757549729
aF-0.005814946278997474
aF-0.0048264787806530166
aF-0.03107418683554435
aF-0.03733317297787655
aF-0.02257340867393393
aF-0.07812510221039926
aF-0.011093350887235275
aF-0.020970609127588077
aF-0.0031091373794955445
aF0.020328369021549154
aF-0.008245794113106048
aF-0.005508538446334015
aF0.010608359223140889
aF-0.05006787303532773
aF0.005366585300143389
aF0.003306468599681797
aF-0.019627439156183427
aF-0.01353897766634796
aF-0.011514296008861452
aF-0.024285631290002795
aF-0.0003731535176369904
aF-0.0004978419963550923
aF0.007949627745809864
aF-0.0048264787806530166
aF-0.0066831505362928085
aF-0.00926819000870169
aF0.0
aF0.0065012290629660905
aF-0.0245226026854611
aF-0.007070181345910166
aF-0.003291433531165747
aF0.008104139170779928
aF0.0
aF-0.014541586859703129
aF-0.03495954520450741
aF-0.003139981032313015
aF-0.04497533381927898
aF-0.06802610252640884
aF-0.005064403179833888
aF0.005879095893760517
aF-0.0017431294279889108
aF-0.004524528376116504
aF-0.00849544490471605
aF-0.04157146850985398
aF-0.008067462869907662
aF-0.005858449280793275
aF-0.01038493673453244
aF-0.008889572047071543
aF-0.008889572047071543
aF-0.011716529325647623
aF-0.0629388587497162
aF-0.01184980598157832
aF-0.006672515596557294
aF0.0075899583844375
aF-0.006331487401634544
aF-0.007071372843656027
aF-0.0048134384879782435
aF-0.12465573194877783
aF0.0
aF0.0050552879690100765
aF-0.07225179995746972
aF-0.0020687609603258056
aF-0.01437135832564863
aF-0.007306657183013455
aF-0.01575390663818332
aF0.0062375249319350295
aF-0.004604403810590944
aF-0.011004305849293985
aF-0.014388007216187562
aF-0.004499731320671677
aF0.001619080332626389
aF-0.007418712370157064
aF0.01045208948868732
aF-0.012160680207721168
aF-0.006354733299071441
aF-0.008462137604747701
aF-0.007359338408132763
aF0.0005365478111492415
aF0.0005195238247418907
aF-0.032055554506382575
aF0.004644473029282122
aF-0.02257155566950835
aF-0.05621961782031428
aF-0.003420377831513898
aF-0.03551448250867091
aF-0.003139981032313015
aF0.0014103308339929906
aF-0.006298396553728528
aF-0.0025498437389916574
aF-0.005069446423309599
aF-0.008125773154398056
aF-0.02640901217635307
aF-0.010302199365954988
aF-0.013066778746190163
aF-0.032193924035594214
aF-0.009170212730586212
aF-0.14706347958608312
aF-0.038807344736039674
aF-0.006607007276119095
aF-0.025396613026426755
aF-0.004307184448533138
aF-0.00811795357948404
aF0.0022860979741471488
aF-0.011910432505274628
aF-0.0113141340223623
aF0.010346795647154529
aF-0.0019448043393795332
aF0.008110965489562352
aF-0.008612667528308254
aF-0.0066385293365363455
aF0.008749053356274772
aF-0.007252324519824255
aF-0.05391038297790736
aF-0.006366003510930171
aF-0.002215735588808655
aF-0.0006831588950264644
aF-0.0019067660283609395
aF0.010617839524463369
aF-0.01431640962429303
aF0.005597800869138634
aF-0.005951319484185634
aF-0.03098057019390752
aF-0.004208770449494469
aF-0.011628426999832584
aF-0.06194350857368562
aF-0.00877372836401016
aF-0.004925975323393132
aF-0.006582106877444952
aF-0.008968079218070621
aF0.0004447278493130606
aF0.000624199144907928
aF-0.003536332057276403
aF0.007816128587503973
aF-0.02030941444720683
aF-0.0006492519257211836
aF-0.0075266279708734955
aF-0.014828109167043649
aF0.00048224514470933204
aF-0.002131715433673627
aF-0.00795191130173533
aF-0.047279774955982186
aF0.006176360424145086
aF-0.00809802351449848
aF-0.0074110348633626396
aF-0.015507667946627899
aF-0.004644510515654193
aF0.0037312366548591137
aF-0.005413210643845243
aF0.009228076941585242
aF0.00912307546236572
aF0.004101721291904753
aF-0.004008744728317916
aF-0.038179078540134095
aF0.0
aF-0.015988002802392265
aF-0.003373417922437778
aF-0.013528198363941799
aF-0.006034295658274224
aF-0.1219782984041367
aF-0.005121063343989318
aF0.03416906714291912
aF-0.005374210029047094
aF-0.025130029757126523
aF-0.002681522938715018
aF-0.0035027514902988845
aF-0.00366175687338426
aF-0.01948379723673702
aF-0.004915967624856727
aF-0.01551712430585956
aF-0.0008972982141710656
aF-0.040517463078615645
aF-0.00900679290874696
aF-0.008428300861222574
aF-0.02529367097496632
aF-0.008428300861222574
aF-0.002911674792443695
aF0.005656630194627158
aF-0.0181021543477908
aF-0.04173307553571477
aF-0.00234705950085415
aF-0.01992655223721446
aF0.010995929279139904
aF-0.030323135044279123
aF-0.004860205123209434
aF-0.019478044826267363
aF0.0
aF-0.0010768181274755629
aF-0.01709421764565684
aF-0.0059945303199467215
aF-0.011531749058654618
aF-0.008245794113106048
aF-0.007477503406134225
aF-0.005768753583827496
aF-0.006582106877444952
aF-0.009250087551244712
aF0.004020308383671217
aF-0.0007464918077045065
aF-0.04105817439557191
aF-0.018730421783076618
aF-0.0037326952952684562
aF-0.019585388904662635
aF-0.02122611829225784
aF-0.010103940766719383
aF-0.005138880454515833
aF-0.009696436961598293
aF-0.011264871104533343
aF-0.036527098387412665
aF-0.003528876530386743
aF-0.013021955171296416
aF-0.010033816073179845
aF-0.01961814210293913
aF-0.004919642822652821
aF-0.018583174817488668
aF-0.005598213215180191
aF-0.008029805759459826
aF-0.008552194117675965
aF-0.0036759320558522462
aF-0.003371692700515281
aF0.002376231500932631
aF0.009482637858668904
aF-0.009876609977433188
aF0.0023961630317103737
aF-0.004167619614987785
aF0.003047017126379234
aF-0.00964153049408892
aF-0.003833737197011845
aF-0.023796939182055048
aF-0.005914139320849061
aF-0.004062855470542294
aF-0.08272039825288616
aF0.009017664805706123
aF-0.026099976276014313
aF0.0
aF-0.006888450529703915
aF-0.0013441018747747016
aF0.0
aF-0.006035886906684897
aF-0.011004305849293985
aF-0.01322618737878293
aF-0.0003877661854182023
aF-0.004923702113369443
aF-0.01767654538028176
aF-0.0017756340781852598
aF-0.004099770064803875
aF-0.00032583228072694003
aF0.006846297768075876
aF-0.006014402243637182
aF0.0
aF0.021130229601181643
aF0.019542659176943068
aF-0.022261040024881364
aF-0.004582070095146198
aF0.02786731620862574
aF-0.012644695703303331
aF-0.00253839286089026
aF-0.020988021769090356
aF-0.00443843082196601
aF-0.0076335593211295195
aF-0.0208322883757969
aF-0.0038780020393844247
aF0.0019208375120815199
aF-0.20656747553923693
aF-0.0015924381850406697
aF-0.13975189581860353
aF-0.010014022444158058
aF0.009886572759502934
aF-0.02637014373852899
aF-0.050222877333628436
aF-0.03266319215505667
aF0.0
aF0.0
aF-0.03780041116453509
aF-0.004495113044061957
aF0.009017664805706123
aF-0.013664999346636467
aF0.0
aF-0.026755623364639918
aF0.0
aF-0.0029259906955428857
aF-0.03946987017067092
aF0.003689265524928949
aF0.0
aF-0.01237731190091141
aF0.010318559518171335
aF0.005169017142373037
aF-0.008865012553429166
aF0.009474954429186694
aF0.002023517952957262
aF0.009110130267277106
aF-0.013190995856707287
aF-0.008195660078478956
aF-0.10000234715978297
aF-0.007920713079290329
aF-0.0012688194391348286
aF-0.004571665713612016
aF-0.004190467751565883
aF-0.009580019907756879
aF-0.003354123892577169
aF-0.001294343904601591
aF-0.006783989567849174
aF-0.01105143424406273
aF-0.004502675658730476
aF0.015603200284128635
aF-0.0010288652920507314
aF-0.005436590986754149
aF-0.012243252154790349
aF-0.01450903886182839
aF-0.008889572047071543
aF0.006424008974399147
aF-0.02104598727128133
aF-0.00835002058185486
aF0.0006218286780953068
aF0.006877512102412798
aF-0.007238671816393245
aF-0.009388501316014914
aF0.0
aF-0.012041113296317133
aF-0.0076251073138351175
aF0.003897709928428185
aF-0.015680079604837062
aF-0.023865873223484033
aF0.0
aF-0.01134841499475311
aF-0.0046312762036016634
aF-0.004653132485235528
aF-0.0043024717513909455
aF0.007848609139246685
aF0.0
aF-0.019898560349689905
aF-0.030186078735670963
aF-0.007826822475544263
aF0.0
aF-0.006731994892381368
aF-0.01437135832564863
aF0.005431068838119919
aF-0.019015203070326125
aF-0.00595239496781338
aF-0.0034008055196856814
aF0.001005562215421665
aF-0.0025265336581518803
aF-0.0022013794630346096
aF0.009828884325157428
aF0.006394049245117589
aF0.008545874484169609
aF-0.013334498429502182
aF0.008280481712336684
aF-0.004213821850962402
aF-0.019569135596063304
aF0.00889262982441184
aF-0.04587602373262101
aF-0.051980061841315886
aF-0.009034174215020023
aF-0.00084343461288036
aF-0.006573833022193852
aF-0.008040513520395434
aF-0.0023270313952570873
aF-0.0021481158840051338
aF-0.008544374058938372
aF0.0
aF-0.005465885215190623
aF-0.00811795357948404
aF-0.00443843082196601
aF0.0
aF-0.00673622286629106
aF-0.006493071215509807
aF0.0
aF-0.005157547301195718
aF-0.02367642793086363
aF-0.04760544714023166
aF-0.005186237577897071
aF-0.002182780004815866
aF-0.024998505686676536
aF-0.012935081334948046
aF-0.005436590986754149
aF0.013114050924756846
aF0.00576612899115253
aF-0.015876709258142704
aF-0.004710751721138661
aF-0.023770817025757132
aF-0.041884907134322934
aF-0.008428300861222574
aF0.0
aF-0.018730421783076618
aF-0.007440990842186908
aF0.01697139386962986
aF-0.00892851903403666
aF-0.003016320925816222
aF0.003357211698077057
aF-0.005914139320849061
aF-0.005594567167411793
aF0.027597265391868537
aF-0.0017431294279889108
aF-0.02531716311058533
aF-0.008788694916334458
aF-0.005859484545187315
aF-0.008889572047071543
aF0.016977047064520783
aF-0.005858449280793275
aF0.009508788742212152
aF0.0065012290629660905
aF-0.001309928803523293
aF-0.006640604521720264
aF0.01036727312260209
aF0.005922984034684764
aF0.009508788742212152
aF-0.1184746609296413
aF-0.007772428483839173
aF-0.0027948064998725335
aF0.0
aF0.0019066700405880094
aF-0.021566512633905348
aF-0.002286832577427219
aF-0.0017147769427662766
aF-0.03104510754145067
aF-0.009557292411862938
aF0.0031139188019377022
aF-0.014023545479894097
aF-0.0029511660783466415
aF-0.011512482221333126
aF0.006482444838728369
aF0.007229857893183156
aF-0.03222116669732482
aF0.008751384582752961
aF-0.01654128066928255
aF-0.018523681688918103
aF-0.005730825003775869
aF-0.027666568254942715
aF0.03753058268893143
aF0.00713723275792449
aF-0.009593966643867868
aF-0.008967261833604826
aF0.0020513986127011948
aF0.0
aF-0.010335782182340195
aF-0.025626172666840957
aF-0.0027948064998725335
aF-0.00490103715533589
aF-0.004312617391125199
aF-0.03137685948863838
aF-0.004246150464419552
aF-0.008040513520395434
aF-0.007407431747171688
aF-0.017005291244811944
aF-0.00494189418564095
aF0.0
aF0.008600035868689413
aF-0.03206374751189935
aF-0.009727686752774632
aF-0.000481852086274783
aF-0.00873366839902095
aF-0.0025498437389916574
aF-0.006706613025224083
aF-0.047022103394412165
aF0.0035134814325306126
aF0.02306391945214995
aF0.010995929279139904
aF-0.00892851903403666
aF-0.027254406599653367
aF0.027936335588239068
aF-0.007684611904236963
aF0.016878017584920052
aF-0.009379346723804825
aF-0.004895211978069294
aF-0.002775208567518794
aF-0.0069692036787706284
aF0.0
aF0.03908251142756045
aF-0.016146353618037703
aF0.0022460769161935816
aF-0.011537765216748194
aF-0.013910876345424143
aF0.001560588738018536
aF0.0
aF-0.0025481741823894857
aF0.0
aF-0.0315574616509402
aF-0.05961295493016918
aF-0.005663726963878964
aF-0.004860205123209434
aF-0.016185030367672177
aF-0.003262994271353283
aF0.012867844193708048
aF-0.33608633995602794
aF-0.24707261121102758
aF-0.013593391883543464
aF-0.10621524374506097
aF0.004469872611495897
aF-0.002220706716041422
aF0.0
aF0.007922578070740753
aF-0.050633325053994545
aF0.004072133353500237
aF-0.0010768181274755629
aF-0.022755912141455645
aF-0.004298903076805548
aF-0.004571665713612016
aF0.004126583006817698
aF-0.015140237895385456
aF-0.005065890204284957
aF-0.001595051463642106
aF-0.014893507015948784
aF0.00012816007220399118
aF0.007962034439620834
aF0.004688529112210662
aF-0.005594567167411793
aF0.00912307546236572
aF-0.005425891278258179
aF-0.026273305317167813
aF-0.007351615450937803
aF-0.019621320027123315
aF-0.025353500386660673
aF-0.3256492684904279
aF-0.006676572752846658
aF0.005960331664492326
aF-0.0031091373794955445
aF-0.02056718290636529
aF0.0
aF-0.01067821679918321
aF-0.0046431475774456245
aF-0.005965689628450775
aF-0.030772547741173523
aF-0.007696883741442496
aF0.004603846148492978
aF-0.009050245004511312
aF-0.008911419179746803
aF0.0
aF-0.0022562816716699273
aF-0.018857946390531868
aF-0.004199993347950605
aF-0.0006858079769205453
aF-0.0047616754220066474
aF0.0
aF-0.014586760343076394
aF0.009171157231322903
aF-0.008410615967841838
aF-0.0033059961086864373
aF-0.006899771724265204
aF-0.004035942125573212
aF0.004167571886734352
aF0.005614581665511431
aF5.489704024140605e-05
aF-0.021125362926392353
aF0.012494351420000058
aF-0.03756442867671146
aF-0.0033825154145900277
aF-0.018078471813587894
aF0.011246340190493946
aF0.0007316565780026451
aF-0.005594567167411793
aF-0.007238671816393245
aF-0.009421346375764684
aF-0.0008764007049814086
aF-0.00880508658930342
aF0.0
aF-0.006111620285382127
aF0.004410657010042045
aF-0.005186237577897071
aF0.0
aF-0.005022807019607482
aF-0.004472570493165204
aF0.009228076941585242
aF-0.006146761202859868
aF-0.009689187062254885
aF-0.04601891830244632
aF-0.003297114027605278
aF-0.05519176585783723
aF0.005070266327758457
aF-0.017294382355990023
aF0.00940056103885392
aF-0.29999622609731696
aF-0.007935902628794707
aF-0.0010768181274755629
aF-0.007784370423394829
aF-0.006676421403382701
aF-0.003988115968643943
aF-0.007829484243256468
aF0.004985113836943726
aF-0.05825413939992931
aF0.008343625647826402
aF0.010903631667793583
aF-0.0017001486220018104
aF0.0
aF-0.014089367879233513
aF-0.006282978546064917
aF0.0
aF-0.017139073775123727
aF0.0
aF-0.006753876239682767
aF-0.006607007276119095
aF0.006765906033230359
aF-0.00653504120223374
aF-0.04578776109455888
aF-0.005598213215180191
aF-0.003800573178494115
aF-0.010682018945407124
aF-0.04601891830244632
aF-0.007238671816393245
aF-0.01288901550739208
aF0.024896097416845113
aF-0.006866494807878151
aF-0.004653025481702403
aF0.008161396685929377
aF-0.016863549314437485
aF0.008661235702754936
aF0.008545874484169609
aF-0.0036210167161303073
aF0.014838344953359924
aF0.004311616953212959
aF-0.004082025598463983
aF0.0
aF-0.02688603712294243
aF-0.005760369623512699
aF-0.007238671816393245
aF-0.04788069782626404
aF-0.02065837045385059
aF0.0
aF-0.010914136854033524
aF0.0022613201836646796
aF-0.08722284745884142
aF-0.0054143786286183875
aF-0.006997218060825085
aF-0.006472565157234625
aF0.0
aF-0.046804080057326156
aF0.009228076941585242
aF-0.018850718622694114
aF-0.003817788000717501
aF-0.010235228595321527
aF-0.01145364207778205
aF-0.007644324909031663
aF-0.040672098270030745
aF0.010273969943448686
aF0.009886572759502934
aF-0.005138880454515833
aF-0.0051696468011045655
aF-0.02057957613424187
aF0.01586631813767838
aF-0.00892851903403666
aF0.008600035868689413
aF-0.02993190936098825
aF-0.05363674834059551
aF-0.00366175687338426
aF0.0
aF-0.016104496912057464
aF-0.05629189534270935
aF-0.01736497799316787
aF-0.018863572645499548
aF-0.0033059961086864373
aF-0.003016320925816222
aF0.0
aF-0.006676421403382701
aF0.0
aF0.0003444912859421185
aF-0.005255385470175184
aF-0.013005988037005744
aF0.0021043367483674497
aF-0.006706613025224083
aF-0.011551289207518484
aF-0.04463098628435071
aF-0.06748678282293177
aF-0.007617267014714949
aF0.004944003210143996
aF-0.004396948006362334
aF0.005032800608602063
aF0.0007910644894539735
aF-0.04187558111760231
aF-0.01992655223721446
aF-0.22522516892392555
aF-0.012511091374221307
aF-0.03573766187150801
aF-0.026099976276014313
aF-0.0524815818152484
aF-0.07774836532785324
aF-0.004493133876903029
aF-0.0029511660783466415
aF-0.16079611773302568
aF-0.002712130404891083
aF0.020568601242819017
aF-0.029571488789352698
aF-0.0054041149660002665
aF-0.0029511660783466415
aF-0.020517342999245108
aF0.011106792169760453
aF0.00028444618924094897
aF-0.017946867797145345
aF-0.027207103615259565
aF-0.034425202474807154
aF0.010995929279139904
aF-0.021552626399868907
aF-0.002927830310712337
aF0.0
aF0.01045208948868732
aF0.005501798066803291
aF-0.001222654619228777
aF-0.005914139320849061
aF-0.011682620649016878
aF-0.029893495579833736
aF-0.025489984478468182
aF-0.005297128655193994
aF0.008597154961618093
aF-0.01029450284271177
aF0.023465482649762448
aF0.010113205537921452
aF-0.018203108964184287
aF-0.005665287390085611
aF0.020871539037793617
aF-0.010098634117392855
aF-0.011632220863130257
aF-0.009459860302134573
aF-0.008967261833604826
aF-0.004854117632698275
aF-0.004150484929941114
aF0.005036392319870174
aF-0.008646571089578631
aF0.009911048398475739
aF-0.013415196752738754
aF-0.008266038297371981
aF-0.004470516658974646
aF-0.006676421403382701
aF-0.0071487104484233375
aF-0.010993789403815122
aF-0.003528876530386743
aF0.017562930174404662
aF-0.00647618448277668
aF0.017888609008229958
aF0.013382490620318412
aF0.02990040558552273
aF-0.02957303691778695
aF-0.00516520091509731
aF-0.004199993347950605
aF-0.009334942599805492
aF-0.011357827998102706
aF-0.01698868351361935
aF0.0
aF-0.00234705950085415
aF0.0
aF0.0019722069940466638
aF-0.024965983511676854
aF-0.002412178501811286
aF-0.019323284584906026
aF0.0057723168299082155
aF0.0
aF-0.20594053456014136
aF-0.005522750678215348
aF-0.008108695629880577
aF-0.0031650189346485464
aF-0.07097837762105783
aF-0.05367373808722533
aF-0.006480365463353917
aF-0.004111463117175925
aF-0.007809138038689973
aF-0.07884564556524487
aF-0.037666617453278615
aF-0.002931714977767501
aF0.0
aF-0.0034205616086501124
aF0.0031026970504995405
aF-0.011364850643487174
aF-0.0030517447755540276
aF-0.0067651263465563355
aF0.0
aF-0.03397834851187376
aF0.008425445621276992
aF-0.01364635933267912
aF-0.028588514896264832
aF-0.022038092069110563
aF-0.003930757357653568
aF-0.005920301903468525
aF-0.00811795357948404
aF0.023993236243993674
aF-0.007238671816393245
aF-0.0086779173294743
aF-0.004615992558407165
aF-0.004969422416295584
aF-0.004969422416295584
aF-0.01722780812493973
aF-0.010123195711377606
aF0.008661235702754936
aF-0.006185271708103157
aF-0.005907038330690353
aF-0.00673622286629106
aF0.0
aF-0.00811795357948404
aF-0.020848417763233235
aF0.005165221471042948
aF0.00955617417047685
aF-0.007727257894411658
aF0.005895353427365581
aF-0.005389740193025221
aF-0.005183664163488504
aF-0.024669435971518133
aF-0.004384552962806805
aF0.0
aF-0.015986704611133665
aF-0.028813309706369708
aF0.0
aF0.009691482551110084
aF-0.005425891278258179
aF-0.02530458762663467
aF0.0
aF-0.005262075559485437
aF0.0070391551174958196
aF-0.0029204091096986413
aF-0.05035058160666633
aF-0.004343664392960109
aF-0.013911064546500176
aF-0.02083939206668704
aF-0.005100660085926482
aF0.008082867750807124
aF0.0044031799792183185
aF-0.01209777311651974
aF-0.019204077708344813
aF-0.0031091373794955445
aF-0.0034008055196856814
aF0.0
aF-0.0034008055196856814
aF-0.0060005133334402865
aF0.011106792169760453
aF0.010899494277484894
aF-0.007238671816393245
aF-0.01536367440086071
aF-0.006582106877444952
aF-0.0048264787806530166
aF0.013314959051816169
aF0.009879710340591444
aF0.005600067997507942
aF-0.005053505501394435
aF-0.015482264664802061
aF-0.006676421403382701
aF-0.029957027961255427
aF-0.018067102784029492
aF-0.008469408532807116
aF-0.005462171989909755
aF-0.02938567810359727
aF0.0
aF-0.029057611635198776
aF-0.003559844742835868
aF0.0
aF0.020552355741840438
aF-0.03002848154749107
aF-0.020979549494679835
aF-0.009983085789976507
aF-0.004190467751565883
aF-0.0036196633044716276
aF-0.01912219157796932
aF-0.0048527853199375895
aF0.0
aF-0.006783721158467562
aF-0.008225762850260755
aF-0.019383748720233577
aF0.006627500715162185
aF0.0
aF-0.005690803468049772
aF-0.006676421403382701
aF-0.00887715594915476
aF0.027178222342061638
aF0.006222915571481035
aF0.007949627745809864
aF-0.003528876530386743
aF0.0
aF-0.004978670316200698
aF0.0
aF-0.0005059589675529978
aF0.008425445621276992
aF-0.0041703891049712245
aF0.023900640139149297
aF-0.009476066114387545
aF-0.00757418391028873
aF-0.01251409790176308
aF-0.01470716874518033
aF0.008811459357325933
aF0.0
aF-0.007175791044041427
aF-0.008514911819394566
aF-0.026509346125083814
aF0.002229352479880968
aF-0.005286952879220771
aF-0.0074840024736678385
aF-0.027842182798298643
aF-0.002792515021307343
aF-0.0025498437389916574
aF-0.018522066391253568
aF0.0
aF-0.0030337859687975897
aF-0.0059945303199467215
aF0.0010547355840076504
aF-0.003256254971324505
aF-0.006315590881275515
aF-0.02769804962645477
aF0.0
aF-0.013768311349910918
aF-0.004520324222286484
aF-0.00861429009458182
aF0.00852005456476931
aF-0.008741826047883903
aF0.007628019158549641
aF-0.01058687643441175
aF-0.015821753951565466
aF-0.0031091373794955445
aF-0.004384552962806805
aF-0.002220706716041422
aF-0.0035867758400651307
aF-0.0077666192774613904
aF-0.005033605928585606
aF0.008492116449372356
aF0.009015373933617678
aF0.0009025916862098821
aF-0.005767187638447955
aF-0.006930060221084275
aF0.00078232183527386
aF-0.005973339401773877
aF0.0
aF-0.004513423582828314
aF-0.006945395709028735
aF-0.03348782790316006
aF-0.002675014934785551
aF-0.014087745373063424
aF-0.016928382904176274
aF-0.12493961827003555
aF-0.0007381665765666845
aF0.0
aF0.003123148965156856
aF-0.0026079893721115315
aF-0.0012702724927875265
aF-0.011028723204449923
aF-0.005425891278258179
aF-0.011722418065263
aF-0.004384552962806805
aF-0.006676421403382701
aF-0.01388357070992432
aF-0.004690820219132944
aF-0.04359394142739105
aF0.007066719621711973
aF-0.015190900156712074
aF-0.003020706107688689
aF-0.005973339401773877
aF0.0
aF-0.001435623751779983
aF-0.004076152595059607
aF-0.010739911347193943
aF-0.005760213805991869
aF-0.0076584749532928745
aF-0.003373417922437778
aF-0.010256165935595724
aF0.00040736191673993566
aF0.007331806461733928
aF-0.00569107634257168
aF-0.049113086987240324
aF-0.019696627234173834
aF-0.006925069543324807
aF-0.008684109469594867
aF-0.025472168605833012
aF-0.004919642822652821
aF-0.007193008382068461
aF-0.01331325847845118
aF-0.008454563615114681
aF-0.07694897157809569
aF-0.006553027946083025
aF-0.07480882668431336
aF0.0025984222719578694
aF-0.16713376240173344
aF-0.007980424711519286
aF0.010667052245034746
aF0.00036102999229583937
aF-0.03739500333521752
aF-0.01645535115104206
aF0.008085578981021375
aF-0.00797886903780961
aF-0.20102519687983217
aF-0.0051151788234186915
aF0.007042280580711098
aF-0.00653532291359404
aF0.009045717400637693
aF0.017229890003060532
aF-0.22828537618873868
aF-0.05024607442999929
aF-0.01600681276260105
aF-0.03809249484198572
aF0.0065914062512199695
aF-0.23987774393338268
aF-0.006528583507530854
aF0.004666499330391899
aF0.0006760554507333937
aF-0.011217330196496107
aF-0.002162813077613254
aF-0.012774558775608656
aF0.009854061271384957
aF-0.004104254667759043
aF-0.006092793267299983
aF-0.023840029975992647
aF0.0026292044478368965
aF-0.008741242945397827
aF0.002695510476729923
aF-0.11204988385872831
aF0.024577970295989324
aF0.011164469824842158
aF0.00971493506423382
aF-0.006470160549830808
aF-0.006092793267299983
aF-0.004478954398115836
aF0.0013571256549166476
aF-0.030063779293280874
aF-0.014789919391006531
aF-0.031328753754546135
aF-0.004849906726275971
aF0.024768648240521596
aF0.010903631667793583
aF0.01324071990136372
aF0.014571355096547747
aF0.003916351666828483
aF-0.09917575187435118
aF0.006977982885541098
aF-0.018256808425853796
aF-0.058720926130695496
aF-0.0044477318740515585
aF-0.005113753144939982
aF-0.0024711952212925978
aF-0.019552995916500292
aF-0.01431696113083345
aF0.004400055320089938
aF-0.00533258508023421
aF0.009933947423802904
aF0.005330978519544092
aF0.0050459587403571884
aF-0.02091140677459412
aF0.010995851758122848
aF-0.0022996896829543157
aF-0.012401301166410854
aF-0.003331708494035546
aF-0.011805839182146866
aF-0.02725905020168709
aF-0.005695593070361703
aF0.008245121384470889
aF0.0088357399367111
aF-0.00790191364188548
aF0.0009212918481833759
aF-0.022194475263116877
aF-0.0749105571238734
aF-0.0815999135304593
aF-0.0072274693274182265
aF-0.0066831505362928085
aF-0.02179819239762112
aF-0.013801253623815027
aF-0.0030923211863905964
aF0.0060720863613371754
aF0.0023284055881364514
aF-1.8872527941099222e-05
aF0.0002390811460903191
aF0.02767070090259085
aF-0.0044467701589742765
aF0.0105569278064092
aF-0.0022068361472709387
aF-0.01260038001164866
aF-0.004214900278969461
aF-0.007848013559556673
aF-0.018300644921405415
aF-0.0011498391547518525
aF-0.029222090605823495
aF-0.003340422286651951
aF-0.01540073675372747
aF-0.0004827500867137008
aF0.007876017503303823
aF0.0
aF0.0006961433192922021
aF0.011611447829802614
aF0.016123349940647874
aF0.0
aF-0.0010053334653766148
aF0.007053513484502737
aF0.004109874314667729
aF0.0068960503207934195
aF-0.0013156491512783229
aF-0.004241147134780329
aF-0.014341622206228151
aF0.0016551914268887553
aF-0.14293221036324077
aF0.012610075826839526
aF0.011828755303469983
aF0.020420971801848153
aF-0.009706720303604546
aF-0.021732642175395098
aF0.002279115271907821
aF-0.021055553753535988
aF-0.005010263250023089
aF0.0
aF-0.002207003624662793
aF-0.002035124471692677
aF-0.006193205580583528
aF-0.0008972982141710656
aF-0.007175791044041427
aF0.011551727867917364
aF-0.008515628440745795
aF0.00890583064391725
aF-0.007472980263339371
aF-0.051586983440305365
aF-0.03318225466140305
aF-0.005537931078028393
aF-0.008872345957461952
aF-0.006622566118509
aF-0.01485460505575719
aF0.012171055851006314
aF-0.01879515689171557
aF-0.013344170479092133
aF0.00986620891346403
aF0.005553189312715151
aF-0.02252359306141306
aF0.0039424453560213055
aF-0.0027828729204472
aF0.0083696011471728
aF0.008140548076829986
aF0.01070998985045106
aF-0.014043672632714522
aF-0.003536332057276403
aF-0.007793633177830498
aF-0.003314409298841036
aF-0.006651997012868709
aF-0.005097799681303636
aF-0.004721116081869539
aF0.0
aF0.0005810085115646748
aF-0.038885854297224666
aF-0.06097407379916704
aF-0.0051293913873848174
aF-0.01259912226640288
aF-0.001305573279987866
aF0.031108381104816944
aF-0.04428392632441861
aF-0.0004188859461026489
aF-0.004937126263260116
aF-0.01877840167302115
aF0.0036288221298979395
aF-0.010169024291538457
aF0.02155288964141929
aF-0.08347656229083493
aF-0.006163413214929354
aF-0.006596250678556577
aF-0.005389740193025221
aF-0.037232950803139764
aF0.0
aF3.405327068919791e-05
aF-0.009382014093456875
aF-0.002236285246582602
aF0.004467813870914928
aF-0.0045293880066274265
aF0.002055486568928661
aF-0.0010898867142943114
aF0.0
aF0.004702364823526323
aF-0.002675014934785551
aF-0.04152992906253138
aF-0.005855822656703771
aF-0.031622268520564795
aF0.006431594099233566
aF-0.004487145903790287
aF0.00010367397209743202
aF-0.024267636517069924
aF0.013966048835113239
aF0.002306792538399634
aF-0.0007783225983126491
aF-0.0008472525493391671
aF0.010273969943448686
aF-0.012354381747027576
aF0.0
aF0.001674090921927736
aF-0.010176725596239788
aF0.0078986293433584
aF0.004139081632790792
aF-0.005433434617040166
aF0.006681622124645213
aF-0.0055997050365838436
aF-0.0030549696120740297
aF0.0009036157380732323
aF-0.0018437983563130782
aF0.0
aF-0.005649582761017077
aF0.002656968807469603
aF-0.00960830021567487
aF-0.0022839905962821743
aF0.0048215338785778565
aF-0.03692205465904884
aF0.0
aF-0.006468084761791972
aF-0.004252634133026396
aF-0.0022847892664401843
aF-0.010728288631638825
aF-0.0003192418184772667
aF0.020768782152380833
aF0.0031500042303923095
aF0.008085754897168534
aF0.007271857662354497
aF0.0003992932299683346
aF-0.0038681593935382423
aF-0.17245975368280136
aF-0.0015795043933557234
aF-0.01961891060600429
aF-0.03892453101681237
aF-0.007258678797137681
aF-0.0007783225983126491
aF-0.004699049512825142
aF0.002828962317078382
aF-0.006373100911549481
aF-0.023383586615564826
aF-0.005389740193025221
aF0.0065012290629660905
aF0.017404589618815025
aF-0.0011498391547518525
aF0.0020480984912360396
aF0.004103207127413248
aF0.008512829440210994
aF-0.01566180606036392
aF0.0
aF-0.006897248568941591
aF-0.007223191915371528
aF0.012221801973064562
aF-0.015549090938696017
aF-0.0013175458589203917
aF0.013932460695650383
aF-0.002341936978992571
aF-0.0053947803299396226
aF-0.001415931740969741
aF-0.0053947803299396226
aF-0.006350965143550159
aF0.0067764274657972
aF-0.004141045713937481
aF-0.018110330003973683
aF-0.013241103399818335
aF0.021924010814016577
aF-0.03502004279220675
aF-0.009260044149567234
aF0.00025374324162021956
aF0.0012400681100521894
aF-0.021442972742617167
aF-0.007968128752612123
aF-0.026639537772172883
aF0.0
aF-0.013446508564231937
aF-0.007413383277127512
aF-0.005873503162806694
aF-0.006985320980044759
aF-0.0014466163977194624
aF0.01045208948868732
aF0.0010927707946146433
aF-0.02255897513800375
aF-0.0023735279491043718
aF0.0
aF-0.03149158036289588
aF-0.01480465402914894
aF-0.027845563966138586
aF-0.005831714947558041
aF-0.01452561962251592
aF0.0038116830738302485
aF-0.0030839568611860015
aF-0.0010602491302031287
aF-0.0045293880066274265
aF-0.023874553935921663
aF-0.00034935007009807514
aF-0.044640189385723596
aF-0.008872057618233512
aF0.006576532287620108
aF0.0
aF0.0
aF0.00801801278762186
aF0.004857020174038716
aF-0.012166686095241823
aF-0.014587749214251208
aF-0.0032566346767184604
aF-0.12281899316502838
aF-0.011476573641514725
aF0.0
aF-0.02419458447808385
aF0.0016892634748898918
aF-0.009216816028129926
aF-0.012824416143726244
aF-0.006331487401634544
aF0.0013516669599361966
aF-0.006010758143392637
aF0.009425318779461985
aF0.0
aF-0.010499214412526676
aF-0.03243685358090854
aF0.004297616996008555
aF-0.00867103779233214
aF-0.009778050286860537
aF-0.0036620767374522883
aF-0.049473706386889756
aF0.016201856388217306
aF-0.005690403221353342
aF-0.04476211621741827
aF-0.002237380322824289
aF-0.002480718599888396
aF-0.0026480502877191886
aF-0.0035029955618024627
aF-0.009166740940610957
aF0.012109763355777072
aF0.001532361038731997
aF-0.01714781575881031
aF-0.011475748585172498
aF-0.007747083317331757
aF0.004020512548198739
aF0.008959531109729312
aF0.0
aF-0.004860205123209434
aF0.0105569278064092
aF0.018232139369480815
aF-0.008745952322895505
aF-0.0015710119590159222
aF-0.009768513367433188
aF-0.0011498391547518525
aF-0.03481930076174779
aF0.01569223618778715
aF-0.010453089158076996
aF0.009278818823007927
aF0.0074558516145146695
aF-0.026924900079173406
aF-0.0023122828475116517
aF-0.004860205123209434
aF0.012833191262036353
aF-0.0457422632715804
aF0.019845920080859097
aF0.01940243874968031
aF-0.002465724584301858
aF-0.01576673856177707
aF0.0
aF-0.009681124059726293
aF0.0
aF-0.11948462680866787
aF0.013869449304742308
aF-0.03492709493806057
aF0.010846517389948906
aF0.011340290102739138
aF-0.038693184520620816
aF-0.012386535465094326
aF0.020913082518868843
aF0.00057852808733019
aF-0.0026079893721115315
aF-0.12278244088416558
aF0.0
aF0.0019743799914086983
aF-0.006150393008170068
aF0.011211795656089754
aF-0.0030549696120740297
aF0.01837216937058423
aF-0.011423741773837984
aF-0.05947915309340298
aF-0.017949161781786956
aF-0.0030998855738792012
aF-0.016290634803314743
aF-0.003819429287080516
aF-0.0382589006654711
aF0.005456120797809616
aF-0.03542063940169115
aF-0.017476736872730648
aF-0.004854959122390181
aF-0.041099822936217306
aF-0.007544765658702653
aF-0.014297912785168272
aF-0.012728110983011427
aF-0.0839756649847601
aF0.0
aF-0.1616630111295118
aF0.020159584227233865
aF-0.02132236206411709
aF0.0
aF0.0
aF-0.011876449058324662
aF0.008959531109729312
aF-0.011638020611772725
aF-0.034815840169907054
aF0.007188894927821126
aF-0.0028841488616636185
aF0.01946686280827452
aF0.007382909794882916
aF-0.005646546472463836
aF-0.0053947803299396226
aF0.01599703963866428
aF-0.028095573135835973
aF0.00898954872059785
aF-0.01783061925745838
aF-0.004757203308244828
aF0.0
aF-0.00581828765505393
aF-0.0028794590636870604
aF-0.1260719646151379
aF-0.00018741302113174866
aF-0.009322959892543682
aF0.0038327774840382655
aF-0.007358777726215281
aF-0.008469408532807116
aF0.009828884325157428
aF-0.01985508483300405
aF-0.011112451475996467
aF-0.0026795254621405744
aF0.00874529885027942
aF0.012495610815639182
aF0.0023522592116217533
aF-0.0069574171809995864
aF0.0
aF-0.004030937516524172
aF0.013699455479426931
aF-0.051995129590147064
aF0.005439873966413154
aF-0.18534423368780464
aF0.007322773280804372
aF-0.005684479399990444
aF-0.016262037702559174
aF-0.008889572047071543
aF-0.011667192327572667
aF-0.024150122842374687
aF-0.011887812000900375
aF-0.03845964283984531
aF-0.005495078679931499
aF-0.04831805480901413
aF0.0
aF-0.008326828677323787
aF-0.02417824545987929
aF0.011768394532309816
aF0.015796317205155407
aF0.02775130372075829
aF0.0105047446316574
aF-0.21336785218221002
aF0.0
aF0.0008309202744541939
aF-0.025122093150048295
aF-0.0017341882596178298
aF-0.001807904134966629
aF-0.0019932616144892326
aF-0.0010137699102746403
aF0.0012377882790027468
aF-0.00375269777820476
aF-0.001841190208462216
aF-0.013231365305187755
aF-0.006481884537092137
aF0.007671687600221875
aF0.0
aF-0.0075876042675804235
aF-0.05982118512101712
aF-0.144737467151586
aF0.0005147995342055643
aF-0.040922230748298746
aF-0.0052723145420199725
aF0.01701598346504905
aF-0.06761739719946473
aF-0.01500276692614248
aF-0.0005691918078139734
aF-0.005326206862435159
aF0.012555586304985612
aF0.017840497984265256
aF-0.0032691676241427023
aF-0.040136642208982574
aF0.010995929279139904
aF-0.0017769959902259394
aF0.005881350746551185
aF0.01160968321227962
aF-0.011058725274435311
aF-0.008504709329148066
aF-0.05058353114538931
aF-0.0045293880066274265
aF-0.0014797197246620088
aF-0.004220507131069915
aF0.012171055851006314
aF-0.016296662593588807
aF-0.005663726963878964
aF-0.011420024384510875
aF-0.015497372223954864
aF-0.008756232934709165
aF0.0
aF-0.02803017510565031
aF-0.0024074569763238747
aF-0.034001600727879076
aF0.0
aF-0.02703804023425235
aF-0.006421122402768404
aF0.0018749045760012362
aF0.00822069724573522
aF-0.006163413214929354
aF-0.03347860726240819
aF-0.3155448201891
aF0.010056873730784016
aF-0.0010435750122730811
aF0.006746535671821297
aF0.00021292296266275425
aF0.012171055851006314
aF0.003670278531689111
aF0.0
aF0.0
aF0.007926798816529032
aF-0.12038486448184521
aF-0.04132781210636109
aF-0.024207062215945267
aF-0.0009130645160162824
aF0.0
aF-0.009522963748238697
aF0.002155310698705913
aF0.005764998285801492
aF0.013442779458189894
aF-0.0010051973532014076
aF-0.006462948101269269
aF-0.005689081955929221
aF-0.012090809077528544
aF-0.006521751503577333
aF0.0
aF0.0048769109056596
aF0.0
aF-0.006640051112261459
aF0.002080614381144243
aF-0.03524783166215738
aF-0.011617175264014712
aF-0.00010516343723436487
aF0.0027424981167092515
aF-0.025422510138939355
aF-0.003087019524717892
aF-0.004911473495439181
aF0.015371589793699826
aF0.019420254972638183
aF-0.0036210167161303073
aF-0.003393649075241868
aF-0.006882205751379007
aF0.009661210348417328
aF-0.10588142565597272
aF-0.005930800164476086
aF-0.005395312840625788
aF-0.01679466818325587
aF-0.00044670166951832157
aF-0.006237496379091807
aF0.0
aF-0.0036644579116687495
aF-0.01864436558358982
aF-0.0012548997740659924
aF-0.007571458632510264
aF-0.036498455374753346
aF0.009244711511050451
aF-0.0026626182471160905
aF0.005683658703341251
aF-0.004577260604048846
aF-0.02426981570949828
aF-0.014105956342139842
aF-0.009128547714118512
aF-0.002131715433673627
aF-0.00860666654830063
aF0.0025873621765291972
aF0.006076348623604842
aF0.0
aF0.008441954196601667
aF-0.004332450360240023
aF0.0
aF0.0008501320909623988
aF0.003871918574178883
aF-0.0023034615020401617
aF-0.007195706144143694
aF-0.003016320925816222
aF-0.132126944854812
aF0.0
aF0.00874421964277027
aF-0.006163413214929354
aF-0.0318314856423484
aF0.0034597161488251317
aF-0.0045293880066274265
aF-0.016086196083887398
aF-0.01113094077973516
aF-0.014783420193319893
aF-0.004860205123209434
aF-0.0032913373659851854
aF-0.0008972982141710656
aF-0.005440649623786601
aF0.006367592540868239
aF-0.012151835362234752
aF0.009073064683119721
aF-0.0010053334653766148
aF-0.0075193980503330355
aF0.0
aF-0.026153434998019174
aF0.005240687401340889
aF0.01841930945816124
aF0.00972449688134205
aF-0.002581400332025188
aF-0.018093144920673182
aF-0.030674293455666576
aF-0.22639046881372635
aF-0.008374948370780058
aF-0.02135404020224667
aF-0.01027271689152826
aF-0.007117965980838489
aF-0.01743154607575036
aF-0.04536005095205119
aF-0.028252394153697093
aF0.03723017199378419
aF0.0039875356765088675
aF-0.006871903393630864
aF-0.002278035456796333
aF0.0
aF0.010273969943448686
aF-0.0038480112627215556
aF-0.01033293093581566
aF-0.012703417185283603
aF0.010387182705598826
aF-0.003828350657976935
aF0.0017732721556589321
aF-0.010814211702609532
aF0.00997178651222115
aF0.0
aF0.014853145457932733
aF-0.006080250754090178
aF0.0007874847387857387
aF-0.06250617819807659
aF-0.18950174396448224
aF-0.007763622382011234
aF-0.00588342285880139
aF-0.0010852478551261816
aF-0.025066606339547437
aF-0.007745790732507717
aF-0.006368841853372729
aF-0.002939191179121661
aF-0.016434894408507535
aF0.03744826934922383
aF-0.06741986503420945
aF-0.008012794911572934
aF-0.01675662661073435
aF-0.005436590986754149
aF0.0026703790804267153
aF0.011254163466446298
aF0.0020636075453419104
aF-0.017252500250020553
aF0.01799248974149207
aF-0.005759116004319367
aF0.009237228791153301
aF-0.003308539815211216
aF0.009110130267277106
aF-0.012194226028183652
aF-0.012488805398471824
aF-0.045285952774669624
aF-0.005066752013252202
aF-0.023141827974656005
aF-0.003869377472073436
aF-0.0020613171806211773
aF-0.026974483786400206
aF-0.02436000423090224
aF0.01440752886239679
aF-0.011297247914696714
aF0.01744703211865487
aF-0.01604058644317278
aF-0.026127064522338803
aF0.01820774488546254
aF0.010960346557176917
aF-0.007311303005187348
aF0.0004135002566441108
aF-0.02721860132108618
aF-0.0010053334653766148
aF-0.15497614165784324
aF0.012221801973064562
aF0.01527253408001971
aF0.006578264037536437
aF0.017234886035901193
aF-0.008731020877881492
aF0.014678720068144156
aF0.009320640551785603
aF0.010486226244039325
aF-0.11294010681162397
aF0.0
aF-0.04522815961794606
aF-0.02293429333998296
aF0.007477731264969184
aF-0.0008871801911896961
aF-0.09709001894166581
aF0.010995929279139904
aF-0.003481426999641384
aF0.014022921669409796
aF0.02061776780303966
aF0.01099297587877637
aF0.004911428975337239
aF-0.16003395333369
aF0.0
aF-0.005136929887923815
aF0.004907970027094086
aF0.007962034439620834
aF-0.033218062919872046
aF-0.008483474932060689
aF-0.2049316819914735
aF-0.008095207691699713
aF-0.2101004100903036
aF-0.005274137111700506
aF0.0
aF-0.03788419822922373
aF-0.12607881838194715
aF-0.007259564819404234
aF-0.0053953281349515035
aF-0.01435113919663356
aF-0.005945657828854221
aF-0.012966838150005499
aF0.005679542780622609
aF-0.04629559026974703
aF0.0028149766895771314
aF-0.008195432865707229
aF0.007591530309788895
aF-0.002954169717722225
aF0.006135724155930471
aF0.008461001168341607
aF-0.025547512136956597
aF0.0039249487925381065
aF-0.006606215025021552
aF-0.0037011105120941506
aF-0.06807452107367573
aF-0.014256758022251298
aF-0.01086896258975695
aF0.0
aF-0.0034129897930715363
aF-0.08388412859167307
aF-0.029369307657361003
aF-0.10313532186253861
aF-0.009312750219585532
aF-0.11904434340447884
aF-0.0002469674031997595
aF-0.0760005061512463
aF-0.04160755827549639
aF0.011094967213553967
aF-0.0130297771344067
aF0.011173207955720797
aF-0.10651170890734579
aF-0.02952659596059166
aF-0.03572882117444348
aF-0.006897248568941591
aF-0.0017340446873085275
aF-0.009499369080267281
aF-0.07986226386284949
aF-0.011726887945990076
aF-0.0058554605764123665
aF0.0012009446563157964
aF0.004618724838952413
aF-0.005841596582867071
aF-0.012905276218577563
aF0.0005759910298745372
aF-0.07308460681662192
aF-0.03449853274751532
aF0.011554559742563657
aF-0.009527131688586795
aF0.00555846984275851
aF0.0008844031513090873
aF-0.09130443808118043
aF-0.04764248461558068
aF-0.07482901023225086
aF0.013510223771254595
aF-0.03523598353700499
aF-0.0321410927480164
aF-0.024211743513042863
aF0.0023916117773128973
aF-0.09207973034993028
aF-0.011110158917191849
aF-0.03022653055355429
aF-0.03680421963971617
aF-0.0021265020501917637
aF-0.028552180878616894
aF-0.008653757589728668
aF-0.016761903104298728
aF-0.08853661514410355
aF0.008983037803162185
aF0.008910655586234037
aF-0.08500985918117997
aF0.00170066038653663
aF-0.018588436489688085
aF-0.055121946386890885
aF-0.0328116767685823
aF-0.06538982696660182
aF-0.05042754066558964
aF-0.007012227604243948
aF0.008557355985589333
aF0.009953825808145638
aF-0.061417915792426406
aF-0.04368594233852434
aF-0.06711500986740992
aF-0.0037382865482312056
aF0.0032306081711633437
aF-0.005361476591336056
aF-0.010933646345984156
aF0.013510223771254595
aF-0.025137243063245603
aF0.004618724838952413
aF-0.002856496546662344
aF-0.06104526002071923
aF0.0023516213589542777
aF-0.11958332657627478
aF-0.010205712923039623
aF-0.07164725872379824
aF-0.034552725460037396
aF-0.08896813822610998
aF-0.05356217557120845
aF0.0032169008933723565
aF-0.0006076353131332615
aF-0.04861413728164264
aF-0.013220355293880612
aF-0.10062978161660063
aF0.0
aF-0.08258280903029243
aF-0.014703392913778372
aF0.00498851387311468
aF-0.014585761443075572
aF-0.05557592096566254
aF-0.04230877127083377
aF-0.12841436645516846
aF-0.0021025453438891792
aF-0.027613366128587374
aF-0.020708585008989762
aF-0.032986527146600324
aF-0.007438146538312093
aF0.018585032733977644
aF-0.01962926381751238
aF0.012672100382463232
aF0.008765143778827067
aF-0.02081819029572467
aF-0.019181452622982962
aF-0.016842088390784535
aF-0.008399734530523907
aF-0.11538840453840338
aF0.00867705865120071
aF-0.020610341207664508
aF-0.00797886903780961
aF-0.009812063626912743
aF0.00672271845742807
aF-0.02318371636720511
aF0.002952014465804644
aF-0.046478583084637475
aF0.004050104170680371
aF0.0010377055700761504
aF-0.1217505555290849
aF-0.0048770628890795285
aF-0.09123022874194223
aF0.005334334808861512
aF0.007975605620983489
aF-0.062380811293554626
aF-0.006527093327037161
aF-0.005828497743268873
aF-0.005637365123341016
aF-0.02487197706781217
aF-0.0317622203332897
aF-0.0006892494997296096
aF-0.0116849148694615
aF0.009119016391069537
aF-0.010933646345984156
aF-0.06682250042104675
aF-0.013494110440993292
aF-0.015619552366629492
aF-0.01830508639201768
aF-0.011086771249393492
aF-0.02177605801355196
aF-0.08594495326955509
aF-0.11884660031867278
aF-0.03418647772202529
aF-0.025969836165035308
aF-0.00107027227023651
aF0.016976700423817447
aF-0.11748639091879078
aF-0.0018519425574111449
aF-0.07951330506696692
aF-0.023863897513206195
aF-0.04845828789545141
aF-0.0003843812042113287
aF-0.04442267343269817
aF-0.0935182290957839
aF-0.03465567167735048
aF0.0010927805772861165
aF0.0
aF-0.006282978546064917
aF-0.006599545439801304
aF-0.031336919677525915
aF-0.05381768627649522
aF0.009593959384395808
aF-0.01530346038664701
aF-0.1217724866447626
aF-0.027336230761812762
aF0.007913766328131556
aF-0.00868659792216679
aF-0.017322475940996868
aF-0.0020482550191749716
aF-0.0887033984964633
aF0.009572744552906827
aF-0.016784400581854562
aF-0.0014428661671068814
aF-0.09120640562039402
aF-0.10535187044347612
aF-0.02806206750531348
aF-0.022962126734215115
aF0.0063269354124897694
aF-0.03306569334304741
aF-0.0028648592641958865
aF-0.0027811829434830544
aF-0.0036631916841339766
aF-0.09440237777787033
aF-0.05073292056758396
aF0.004354879424300499
aF-0.07662121497335185
aF-0.00011902310013152532
aF-0.0008972982141710656
aF-0.02030005452479501
aF-0.030044030678394156
aF-0.02692107849185842
aF0.012360500122124736
aF-0.07139217428528766
aF0.01102551018684731
aF0.0035801503984678696
aF-0.01479799676378236
aF-0.01276276271737571
aF-0.09800862352654881
aF-0.025890649168787635
aF0.007891049763348593
aF-0.013745260929129078
aF0.011689473401947387
aF-0.02221617425768942
aF-0.07266533755531239
aF-0.015354870115912253
aF-0.006634836615366887
aF-0.011442761056171397
aF-0.00409168924595411
aF-0.0028868792015104296
aF-0.02317455741991232
aF-0.09351664029178895
aF-0.019181794351633127
aF-0.008028328057167312
aF0.0008912374453839592
aF-0.0014428661671068814
aF-0.03670734201998198
aF-0.04066165844841124
aF-0.02932482516332476
aF-0.02141745400466368
aF-0.0002355912797578417
aF-0.0005764797300336124
aF-0.008075047815416226
aF-0.0321440064867627
aF-0.055121946386890885
aF-0.08368973383498308
aF0.032226334093430904
aF-0.0011820089293405756
aF-0.014944030445773438
aF0.016208750752338793
aF-0.017484637885664282
aF-0.06377644937909827
aF0.0054287992100547425
aF-0.09805613276913631
aF-0.049132697319332286
aF-0.02629994785649601
aF-0.005797683426034433
aF-0.02362339559922601
aF-0.004798116213942903
aF-0.013540156907974166
aF0.008781656075416585
aF-0.08349193769759684
aF-0.0014428661671068814
aF-0.05507673865510889
aF-0.09763219819481124
aF-0.0392374759216897
aF-0.029262258145425248
aF0.0065641502934448296
aF-0.09779458484597985
aF0.008221893239985005
aF-0.008246439532937097
aF-0.04487386642089755
aF0.0077028475663288255
aF0.010155721752144466
aF-0.0014466163977194624
aF-0.0226190943784935
aF0.004062315766252292
aF-0.0919476503115716
aF-0.11136918260648081
aF-0.004502675658730476
aF-0.026301272922100917
aF0.008526464844476778
aF-0.006258848525291003
aF-0.03319922134599383
aF-0.007051776489474542
aF0.009898376983049696
aF-0.007472799117423289
aF-0.13594954240282284
aF0.00825857322122968
aF-0.03660752744139204
aF-0.005572317619053512
aF-0.09192509493286377
aF-0.001943658144033127
aF-0.006141844123148482
aF-0.011159619278697387
aF-0.017368982075105528
aF-0.08374119561348632
aF0.012334233667058188
aF-0.11749146081347658
aF-0.03482206321008482
aF-0.0015899350441548248
aF-0.10314385883581598
aF0.003517154294267351
aF-0.02453576610682054
aF0.00863088322804722
aF-0.010568481086319914
aF-0.12431344962950967
aF-0.034969763542910794
aF-0.020259743700070408
aF-0.013431807729787632
aF-0.015400689630089864
aF0.005617983443355398
aF-0.00940571970992103
aF-0.0008972982141710656
aF0.0014501577989195903
aF-0.07430613219855685
aF-0.0024537923151552285
aF-0.06084322900049266
aF-0.007131091164356381
aF-0.0522424666237003
aF0.003198016007778858
aF0.009975372236981408
aF0.009256928061653596
aF-0.0028770009018159195
aF-0.0018519425574111449
aF-0.015503348858923653
aF-0.03418647772202529
aF-0.005097799681303636
aF-0.0763524833836064
aF0.00650156056395295
aF-0.0535386567583091
aF-0.027336230761812762
aF-0.05407726810449939
aF-0.0030039488225551314
aF0.025776128561669043
aF-0.00403838168013571
aF-0.09192509493286377
aF-0.012347613881263228
aF0.0023020627466121294
aF0.0031825303840670722
aF0.015335778062747635
aF-0.0006165478320375339
aF0.004354879424300499
aF-0.004061108184889452
aF-0.008246439532937097
aF-0.07646660088016909
aF-0.014694101180358753
aF-0.0018831016271478628
aF-0.02862903807772059
aF-0.00495779008858801
aF-0.008274809041387552
aF0.0023122309639877583
aF-0.02720424392412856
aF-0.0017807560272817126
aF-0.0008972982141710656
aF-0.09039296576714768
aF-0.002480335185431758
aF-0.03361854933562845
aF-0.023017046836276436
aF-0.002308136659065386
aF0.005351863751683323
aF-0.028858733900622907
aF-0.007107605682193454
aF-0.0008972982141710656
aF-0.02714015349608653
aF0.0
aF0.009679217888029007
aF-0.014159505946677961
aF0.012360500122124736
aF0.007887199795515823
aF-0.01050028169798671
aF-0.0028297582733165694
aF-0.007674840064763746
aF0.008514121110270072
aF-0.09480458041623835
aF-0.016886727532985903
aF0.006846297768075876
aF-0.056609722736704116
aF-0.007821216220501996
aF-0.0008972982141710656
aF-0.0008972982141710656
asb.